; Function Attrs: inlinehint nofree nounwind uwtable
define internal fastcc void @hwloc_memory_size_snprintf(ptr noundef nonnull writeonly captures(none) %0, i64 noundef %1, i64 noundef %2) unnamed_addr #13 {
  %4 = and i64 %2, 16
  %.not = icmp eq i64 %4, 0
  br i1 %.not, label %7, label %5

5:                                                ; preds = %3
  %6 = tail call i32 (ptr, i64, ptr, ...) @snprintf(ptr noundef nonnull dereferenceable(1) %0, i64 noundef 25, ptr noundef nonnull @.str.88, i64 noundef %1) #20
  br label %68

7:                                                ; preds = %3
  %8 = and i64 %2, 1
  %.not40 = icmp eq i64 %8, 0
  br i1 %.not40, label %14, label %9

9:                                                ; preds = %7
  %10 = lshr i64 %1, 9
  %11 = add nuw nsw i64 %10, 1
  %12 = lshr i64 %11, 1
  %13 = tail call i32 (ptr, i64, ptr, ...) @snprintf(ptr noundef nonnull dereferenceable(1) %0, i64 noundef 25, ptr noundef nonnull @.str.89, i64 noundef %12, ptr noundef nonnull @.str.90) #20
  br label %68

14:                                               ; preds = %7
  %15 = and i64 %2, 32
  %.not41 = icmp eq i64 %15, 0
  br i1 %.not41, label %42, label %16

16:                                               ; preds = %14
  %17 = icmp ult i64 %1, 10000000
  br i1 %17, label %18, label %23

18:                                               ; preds = %16
  %.lhs.trunc = trunc nuw i64 %1 to i32
  %19 = udiv i32 %.lhs.trunc, 500
  %narrow = add nuw nsw i32 %19, 1
  %20 = lshr i32 %narrow, 1
  %21 = zext nneg i32 %20 to i64
  %22 = tail call i32 (ptr, i64, ptr, ...) @snprintf(ptr noundef nonnull dereferenceable(1) %0, i64 noundef 25, ptr noundef nonnull @.str.89, i64 noundef %21, ptr noundef nonnull @.str.90) #20
  br label %68

23:                                               ; preds = %16
  %24 = icmp ult i64 %1, 10000000000
  br i1 %24, label %25, label %30

25:                                               ; preds = %23
  %26 = udiv i64 %1, 500000
  %27 = add nuw nsw i64 %26, 1
  %28 = lshr i64 %27, 1
  %29 = tail call i32 (ptr, i64, ptr, ...) @snprintf(ptr noundef nonnull dereferenceable(1) %0, i64 noundef 25, ptr noundef nonnull @.str.89, i64 noundef %28, ptr noundef nonnull @.str.91) #20
  br label %68

30:                                               ; preds = %23
  %31 = icmp ult i64 %1, 10000000000000
  br i1 %31, label %32, label %37

32:                                               ; preds = %30
  %33 = udiv i64 %1, 500000000
  %34 = add nuw nsw i64 %33, 1
  %35 = lshr i64 %34, 1
  %36 = tail call i32 (ptr, i64, ptr, ...) @snprintf(ptr noundef nonnull dereferenceable(1) %0, i64 noundef 25, ptr noundef nonnull @.str.89, i64 noundef %35, ptr noundef nonnull @.str.92) #20
  br label %68

37:                                               ; preds = %30
  %38 = udiv i64 %1, 500000000000
  %39 = add nuw nsw i64 %38, 1
  %40 = lshr i64 %39, 1
  %41 = tail call i32 (ptr, i64, ptr, ...) @snprintf(ptr noundef nonnull dereferenceable(1) %0, i64 noundef 25, ptr noundef nonnull @.str.89, i64 noundef %40, ptr noundef nonnull @.str.93) #20
  br label %68

42:                                               ; preds = %14
  %43 = icmp ult i64 %1, 10485760
  br i1 %43, label %44, label %49

44:                                               ; preds = %42
  %45 = lshr i64 %1, 9
  %46 = add nuw nsw i64 %45, 1
  %47 = lshr i64 %46, 1
  %48 = tail call i32 (ptr, i64, ptr, ...) @snprintf(ptr noundef nonnull dereferenceable(1) %0, i64 noundef 25, ptr noundef nonnull @.str.89, i64 noundef %47, ptr noundef nonnull @.str.94) #20
  br label %68

49:                                               ; preds = %42
  %50 = icmp ult i64 %1, 10737418240
  br i1 %50, label %51, label %56

51:                                               ; preds = %49
  %52 = lshr i64 %1, 19
  %53 = add nuw nsw i64 %52, 1
  %54 = lshr i64 %53, 1
  %55 = tail call i32 (ptr, i64, ptr, ...) @snprintf(ptr noundef nonnull dereferenceable(1) %0, i64 noundef 25, ptr noundef nonnull @.str.89, i64 noundef %54, ptr noundef nonnull @.str.95) #20
  br label %68

56:                                               ; preds = %49
  %57 = icmp ult i64 %1, 10995116277760
  br i1 %57, label %58, label %63

58:                                               ; preds = %56
  %59 = lshr i64 %1, 29
  %60 = add nuw nsw i64 %59, 1
  %61 = lshr i64 %60, 1
  %62 = tail call i32 (ptr, i64, ptr, ...) @snprintf(ptr noundef nonnull dereferenceable(1) %0, i64 noundef 25, ptr noundef nonnull @.str.89, i64 noundef %61, ptr noundef nonnull @.str.96) #20
  br label %68

63:                                               ; preds = %56
  %64 = lshr i64 %1, 39
  %65 = add nuw nsw i64 %64, 1
  %66 = lshr i64 %65, 1
  %67 = tail call i32 (ptr, i64, ptr, ...) @snprintf(ptr noundef nonnull dereferenceable(1) %0, i64 noundef 25, ptr noundef nonnull @.str.89, i64 noundef %66, ptr noundef nonnull @.str.97) #20
  br label %68

68:                                               ; preds = %63, %58, %51, %44, %37, %32, %25, %18, %9, %5
  ret void
}